; Function Attrs: nounwind uwtable
define dso_local i32 @fdt_appendprop_addrrange(ptr noundef %0, i32 noundef %1, i32 noundef %2, ptr noundef %3, i64 noundef %4, i64 noundef %5) local_unnamed_addr #0 {
  %7 = alloca i32, align 4
  %8 = alloca i32, align 4
  %9 = alloca [16 x i8], align 16
  call void @llvm.lifetime.start.p0(i64 16, ptr nonnull %9) #5
  call void @llvm.memset.p0.i64(ptr noundef nonnull align 16 dereferenceable(16) %9, i8 0, i64 16, i1 false), !annotation !4
  call void @llvm.lifetime.start.p0(i64 4, ptr nonnull %8) #5
  store i32 0, ptr %8, align 4, !annotation !4
  %10 = call ptr @fdt_getprop(ptr noundef %0, i32 noundef %1, ptr noundef nonnull @.str, ptr noundef nonnull %8) #5
  %.not.i.i = icmp eq ptr %10, null
  %11 = load i32, ptr %8, align 4
  %.sink49.sroa.gep = getelementptr inbounds nuw i8, ptr %9, i64 7
  %.sink49.sroa.gep64 = getelementptr inbounds nuw i8, ptr %9, i64 3
  %.sink51.sroa.gep = getelementptr inbounds nuw i8, ptr %9, i64 6
  %.sink51.sroa.gep65 = getelementptr inbounds nuw i8, ptr %9, i64 2
  %.sink54.sroa.gep = getelementptr inbounds nuw i8, ptr %9, i64 5
  %.sink54.sroa.gep66 = getelementptr inbounds nuw i8, ptr %9, i64 1
  br i1 %.not.i.i, label %fdt_cells.exit.i, label %12

12:                                               ; preds = %6
  %.not9.i.i = icmp eq i32 %11, 4
  br i1 %.not9.i.i, label %13, label %fdt_cells.exit.thread.i

13:                                               ; preds = %12
  %14 = load i32, ptr %10, align 4
  %rev.i.i.i = call noundef i32 @llvm.bswap.i32(i32 %14)
  %15 = icmp ugt i32 %rev.i.i.i, 4
  br i1 %15, label %fdt_cells.exit.thread.i, label %fdt_cells.exit.i

fdt_cells.exit.thread.i:                          ; preds = %13, %12
  call void @llvm.lifetime.end.p0(i64 4, ptr nonnull %8) #5
  br label %fdt_address_cells.exit.thread

fdt_cells.exit.i:                                 ; preds = %13, %6
  %.0.i.i = phi i32 [ %rev.i.i.i, %13 ], [ %11, %6 ]
  call void @llvm.lifetime.end.p0(i64 4, ptr nonnull %8) #5
  switch i32 %.0.i.i, label %fdt_address_cells.exit [
    i32 0, label %fdt_address_cells.exit.thread
    i32 -1, label %fdt_address_cells.exit.thread45
  ]

fdt_address_cells.exit:                           ; preds = %fdt_cells.exit.i
  %16 = icmp slt i32 %.0.i.i, 0
  br i1 %16, label %fdt_address_cells.exit.thread, label %fdt_address_cells.exit.thread45

fdt_address_cells.exit.thread45:                  ; preds = %fdt_cells.exit.i, %fdt_address_cells.exit
  %.0.i47 = phi i32 [ %.0.i.i, %fdt_address_cells.exit ], [ 2, %fdt_cells.exit.i ]
  call void @llvm.lifetime.start.p0(i64 4, ptr nonnull %7) #5
  store i32 0, ptr %7, align 4, !annotation !4
  %17 = call ptr @fdt_getprop(ptr noundef %0, i32 noundef %1, ptr noundef nonnull @.str.1, ptr noundef nonnull %7) #5
  %.not.i.i39 = icmp eq ptr %17, null
  %18 = load i32, ptr %7, align 4
  %.fr.i = freeze i32 %18
  br i1 %.not.i.i39, label %fdt_cells.exit.i43, label %19

19:                                               ; preds = %fdt_address_cells.exit.thread45
  %.not9.i.i40 = icmp eq i32 %.fr.i, 4
  br i1 %.not9.i.i40, label %20, label %fdt_cells.exit.thread.i41

20:                                               ; preds = %19
  %21 = load i32, ptr %17, align 4
  %rev.i.i.i42 = call noundef i32 @llvm.bswap.i32(i32 %21)
  %22 = icmp ugt i32 %rev.i.i.i42, 4
  %spec.select.i = select i1 %22, i32 -14, i32 %rev.i.i.i42
  br label %fdt_cells.exit.thread.i41

fdt_cells.exit.thread.i41:                        ; preds = %20, %19
  %.0.i.ph.i = phi i32 [ -14, %19 ], [ %spec.select.i, %20 ]
  call void @llvm.lifetime.end.p0(i64 4, ptr nonnull %7) #5
  br label %fdt_size_cells.exit

fdt_cells.exit.i43:                               ; preds = %fdt_address_cells.exit.thread45
  call void @llvm.lifetime.end.p0(i64 4, ptr nonnull %7) #5
  %23 = icmp eq i32 %.fr.i, -1
  br i1 %23, label %fdt_size_cells.exit.thread, label %fdt_size_cells.exit

fdt_size_cells.exit:                              ; preds = %fdt_cells.exit.i43, %fdt_cells.exit.thread.i41
  %24 = phi i32 [ %.0.i.ph.i, %fdt_cells.exit.thread.i41 ], [ %.fr.i, %fdt_cells.exit.i43 ]
  %25 = icmp slt i32 %24, 0
  br i1 %25, label %fdt_address_cells.exit.thread, label %fdt_size_cells.exit.thread

fdt_size_cells.exit.thread:                       ; preds = %fdt_cells.exit.i43, %fdt_size_cells.exit
  %26 = phi i32 [ %24, %fdt_size_cells.exit ], [ 1, %fdt_cells.exit.i43 ]
  switch i32 %.0.i47, label %fdt_address_cells.exit.thread [
    i32 1, label %27
    i32 2, label %34
  ]

27:                                               ; preds = %fdt_size_cells.exit.thread
  %28 = icmp ugt i64 %4, 4294967295
  %29 = sub nsw i64 0, %4
  %30 = icmp ugt i64 %5, %29
  %or.cond = select i1 %28, i1 true, i1 %30
  br i1 %or.cond, label %fdt_address_cells.exit.thread, label %31

31:                                               ; preds = %27
  %32 = lshr i64 %4, 24
  %33 = trunc nuw i64 %32 to i8
  store i8 %33, ptr %9, align 16
  br label %49

34:                                               ; preds = %fdt_size_cells.exit.thread
  %35 = lshr i64 %4, 56
  %36 = trunc nuw i64 %35 to i8
  store i8 %36, ptr %9, align 16
  %37 = lshr i64 %4, 48
  %38 = trunc i64 %37 to i8
  %39 = getelementptr inbounds nuw i8, ptr %9, i64 1
  store i8 %38, ptr %39, align 1
  %40 = lshr i64 %4, 40
  %41 = trunc i64 %40 to i8
  %42 = getelementptr inbounds nuw i8, ptr %9, i64 2
  store i8 %41, ptr %42, align 2
  %43 = lshr i64 %4, 32
  %44 = trunc i64 %43 to i8
  %45 = getelementptr inbounds nuw i8, ptr %9, i64 3
  store i8 %44, ptr %45, align 1
  %46 = lshr i64 %4, 24
  %47 = trunc i64 %46 to i8
  %48 = getelementptr inbounds nuw i8, ptr %9, i64 4
  store i8 %47, ptr %48, align 4
  br label %49

49:                                               ; preds = %34, %31
  %.sink54.sroa.phi = phi ptr [ %.sink54.sroa.gep, %34 ], [ %.sink54.sroa.gep66, %31 ]
  %.sink51.sroa.phi = phi ptr [ %.sink51.sroa.gep, %34 ], [ %.sink51.sroa.gep65, %31 ]
  %.sink49.sroa.phi = phi ptr [ %.sink49.sroa.gep, %34 ], [ %.sink49.sroa.gep64, %31 ]
  %50 = lshr i64 %4, 16
  %51 = trunc i64 %50 to i8
  store i8 %51, ptr %.sink54.sroa.phi, align 1
  %52 = lshr i64 %4, 8
  %53 = trunc i64 %52 to i8
  store i8 %53, ptr %.sink51.sroa.phi, align 2
  %54 = trunc i64 %4 to i8
  store i8 %54, ptr %.sink49.sroa.phi, align 1
  %55 = zext nneg i32 %.0.i47 to i64
  %56 = shl nuw nsw i64 %55, 2
  %57 = getelementptr inbounds nuw i8, ptr %9, i64 %56
  switch i32 %26, label %fdt_address_cells.exit.thread [
    i32 1, label %58
    i32 2, label %63
  ]

58:                                               ; preds = %49
  %59 = icmp ugt i64 %5, 4294967295
  br i1 %59, label %fdt_address_cells.exit.thread, label %60

60:                                               ; preds = %58
  %61 = lshr i64 %5, 24
  %62 = trunc nuw i64 %61 to i8
  store i8 %62, ptr %57, align 4
  br label %78

63:                                               ; preds = %49
  %64 = lshr i64 %5, 56
  %65 = trunc nuw i64 %64 to i8
  store i8 %65, ptr %57, align 4
  %66 = lshr i64 %5, 48
  %67 = trunc i64 %66 to i8
  %68 = getelementptr inbounds nuw i8, ptr %57, i64 1
  store i8 %67, ptr %68, align 1
  %69 = lshr i64 %5, 40
  %70 = trunc i64 %69 to i8
  %71 = getelementptr inbounds nuw i8, ptr %57, i64 2
  store i8 %70, ptr %71, align 2
  %72 = lshr i64 %5, 32
  %73 = trunc i64 %72 to i8
  %74 = getelementptr inbounds nuw i8, ptr %57, i64 3
  store i8 %73, ptr %74, align 1
  %75 = lshr i64 %5, 24
  %76 = trunc i64 %75 to i8
  %77 = getelementptr inbounds nuw i8, ptr %57, i64 4
  store i8 %76, ptr %77, align 4
  br label %78

78:                                               ; preds = %63, %60
  %.sink62 = phi i64 [ 5, %63 ], [ 1, %60 ]
  %.sink59 = phi i64 [ 6, %63 ], [ 2, %60 ]
  %.sink57 = phi i64 [ 7, %63 ], [ 3, %60 ]
  %79 = lshr i64 %5, 16
  %80 = trunc i64 %79 to i8
  %81 = getelementptr inbounds nuw i8, ptr %57, i64 %.sink62
  store i8 %80, ptr %81, align 1
  %82 = lshr i64 %5, 8
  %83 = trunc i64 %82 to i8
  %84 = getelementptr inbounds nuw i8, ptr %57, i64 %.sink59
  store i8 %83, ptr %84, align 2
  %85 = trunc i64 %5 to i8
  %86 = getelementptr inbounds nuw i8, ptr %57, i64 %.sink57
  store i8 %85, ptr %86, align 1
  %87 = add nuw nsw i32 %26, %.0.i47
  %88 = shl nuw nsw i32 %87, 2
  %89 = call i32 @fdt_appendprop(ptr noundef %0, i32 noundef %2, ptr noundef %3, ptr noundef nonnull %9, i32 noundef %88) #5
  br label %fdt_address_cells.exit.thread

fdt_address_cells.exit.thread:                    ; preds = %fdt_cells.exit.thread.i, %fdt_cells.exit.i, %49, %58, %fdt_size_cells.exit.thread, %27, %fdt_size_cells.exit, %fdt_address_cells.exit, %78
  %.0 = phi i32 [ %89, %78 ], [ %.0.i.i, %fdt_address_cells.exit ], [ %24, %fdt_size_cells.exit ], [ -15, %27 ], [ -14, %fdt_size_cells.exit.thread ], [ -15, %58 ], [ -14, %49 ], [ -14, %fdt_cells.exit.i ], [ -14, %fdt_cells.exit.thread.i ]
  call void @llvm.lifetime.end.p0(i64 16, ptr nonnull %9) #5
  ret i32 %.0
}